target datalayout = "e-m:e-p270:32:32-p271:32:32-p272:64:64-i64:64-i128:128-f80:128-n8:16:32:64-S128"
target triple = "x86_64-unknown-linux-gnu"

%struct.vhost_vring_file = type { i32, i32 }
%struct.vhost_net = type { %struct.vhost_dev, [2 x %struct.vhost_virtqueue], i32, ptr }
%struct.vhost_dev = type { ptr, %struct.MemoryListener, %struct.MemoryListener, ptr, i32, ptr, i32, ptr, ptr, i32, i32, i32, i32, i64, i64, i64, i64, i64, i64, i8, i8, i64, ptr, ptr, ptr, ptr, %struct.anon, %struct.anon.1, %struct.IOMMUNotifier, ptr }
%struct.MemoryListener = type { ptr, ptr, ptr, ptr, ptr, ptr, ptr, ptr, ptr, ptr, ptr, ptr, ptr, ptr, ptr, ptr, ptr, i32, ptr, ptr, %union.anon, %union.anon.0 }
%union.anon = type { %struct.QTailQLink }
%struct.QTailQLink = type { ptr, ptr }
%union.anon.0 = type { %struct.QTailQLink }
%struct.anon = type { ptr, ptr }
%struct.anon.1 = type { ptr }
%struct.IOMMUNotifier = type { ptr, i32, i64, i64, i32, %struct.anon.2 }
%struct.anon.2 = type { ptr, ptr }
%struct.vhost_virtqueue = type { i32, i32, ptr, ptr, ptr, i32, i64, i32, i64, i32, i64, i32, %struct.EventNotifier, %struct.EventNotifier, %struct.EventNotifier, ptr }
%struct.EventNotifier = type { i32, i32, i8 }
%struct.NetClientState = type { ptr, i32, %union.anon.3, ptr, ptr, ptr, ptr, [256 x i8], i8, ptr, i32, i8, i32, i32, i8, i8, i8, %union.anon.4 }
%union.anon.3 = type { %struct.QTailQLink }
%union.anon.4 = type { %struct.QTailQLink }
%struct.NetClientInfo = type { i32, i64, ptr, ptr, ptr, ptr, ptr, ptr, ptr, ptr, ptr, ptr, ptr, ptr, ptr, ptr, ptr, ptr, ptr, ptr, ptr, ptr, ptr, ptr, ptr, ptr, ptr }

@.str.5 = private unnamed_addr constant [7 x i8] c"r >= 0\00", align 1
@.str.6 = private unnamed_addr constant [27 x i8] c"../qemu/hw/net/vhost_net.c\00", align 1
@__const.vhost_net_stop_one.file = private unnamed_addr constant %struct.vhost_vring_file { i32 0, i32 -1 }, align 4
@__PRETTY_FUNCTION__.vhost_net_stop_one = private unnamed_addr constant [60 x i8] c"void vhost_net_stop_one(struct vhost_net *, VirtIODevice *)\00", align 1

; Function Attrs: nounwind sspstrong uwtable
define internal void @vhost_net_stop_one(ptr noundef %net, ptr noundef %dev) #0 {
entry:
  %net.addr = alloca ptr, align 8
  %dev.addr = alloca ptr, align 8
  %file = alloca %struct.vhost_vring_file, align 4
  %r = alloca i32, align 4
  store ptr %net, ptr %net.addr, align 8
  store ptr %dev, ptr %dev.addr, align 8
  call void @llvm.memcpy.p0.p0.i64(ptr align 4 %file, ptr align 4 @__const.vhost_net_stop_one.file, i64 8, i1 false)
  %0 = load ptr, ptr %net.addr, align 8
  %nc = getelementptr inbounds %struct.vhost_net, ptr %0, i32 0, i32 3
  %1 = load ptr, ptr %nc, align 8
  %info = getelementptr inbounds %struct.NetClientState, ptr %1, i32 0, i32 0
  %2 = load ptr, ptr %info, align 8
  %type = getelementptr inbounds %struct.NetClientInfo, ptr %2, i32 0, i32 0
  %3 = load i32, ptr %type, align 8
  %cmp = icmp eq i32 %3, 3
  br i1 %cmp, label %if.then, label %if.end8

if.then:                                          ; preds = %entry
  %index = getelementptr inbounds %struct.vhost_vring_file, ptr %file, i32 0, i32 0
  store i32 0, ptr %index, align 4
  br label %for.cond

for.cond:                                         ; preds = %for.inc, %if.then
  %index1 = getelementptr inbounds %struct.vhost_vring_file, ptr %file, i32 0, i32 0
  %4 = load i32, ptr %index1, align 4
  %5 = load ptr, ptr %net.addr, align 8
  %dev2 = getelementptr inbounds %struct.vhost_net, ptr %5, i32 0, i32 0
  %nvqs = getelementptr inbounds %struct.vhost_dev, ptr %dev2, i32 0, i32 9
  %6 = load i32, ptr %nvqs, align 8
  %cmp3 = icmp ult i32 %4, %6
  br i1 %cmp3, label %for.body, label %for.end

for.body:                                         ; preds = %for.cond
  %7 = load ptr, ptr %net.addr, align 8
  %dev4 = getelementptr inbounds %struct.vhost_net, ptr %7, i32 0, i32 0
  %call = call i32 @vhost_net_set_backend(ptr noundef %dev4, ptr noundef %file)
  store i32 %call, ptr %r, align 4
  %8 = load i32, ptr %r, align 4
  %cmp5 = icmp sge i32 %8, 0
  br i1 %cmp5, label %if.then6, label %if.else

if.then6:                                         ; preds = %for.body
  br label %if.end

if.else:                                          ; preds = %for.body
  call void @__assert_fail(ptr noundef @.str.5, ptr noundef @.str.6, i32 noundef 338, ptr noundef @__PRETTY_FUNCTION__.vhost_net_stop_one) #8
  unreachable

if.end:                                           ; preds = %if.then6
  br label %for.inc

for.inc:                                          ; preds = %if.end
  %index7 = getelementptr inbounds %struct.vhost_vring_file, ptr %file, i32 0, i32 0
  %9 = load i32, ptr %index7, align 4
  %inc = add i32 %9, 1
  store i32 %inc, ptr %index7, align 4
  br label %for.cond, !llvm.loop !11

for.end:                                          ; preds = %for.cond
  br label %if.end8

if.end8:                                          ; preds = %for.end, %entry
  %10 = load ptr, ptr %net.addr, align 8
  %nc9 = getelementptr inbounds %struct.vhost_net, ptr %10, i32 0, i32 3
  %11 = load ptr, ptr %nc9, align 8
  %info10 = getelementptr inbounds %struct.NetClientState, ptr %11, i32 0, i32 0
  %12 = load ptr, ptr %info10, align 8
  %poll = getelementptr inbounds %struct.NetClientInfo, ptr %12, i32 0, i32 12
  %13 = load ptr, ptr %poll, align 8
  %tobool = icmp ne ptr %13, null
  br i1 %tobool, label %if.then11, label %if.end16

if.then11:                                        ; preds = %if.end8
  %14 = load ptr, ptr %net.addr, align 8
  %nc12 = getelementptr inbounds %struct.vhost_net, ptr %14, i32 0, i32 3
  %15 = load ptr, ptr %nc12, align 8
  %info13 = getelementptr inbounds %struct.NetClientState, ptr %15, i32 0, i32 0
  %16 = load ptr, ptr %info13, align 8
  %poll14 = getelementptr inbounds %struct.NetClientInfo, ptr %16, i32 0, i32 12
  %17 = load ptr, ptr %poll14, align 8
  %18 = load ptr, ptr %net.addr, align 8
  %nc15 = getelementptr inbounds %struct.vhost_net, ptr %18, i32 0, i32 3
  %19 = load ptr, ptr %nc15, align 8
  call void %17(ptr noundef %19, i1 noundef zeroext true)
  br label %if.end16

if.end16:                                         ; preds = %if.then11, %if.end8
  %20 = load ptr, ptr %net.addr, align 8
  %dev17 = getelementptr inbounds %struct.vhost_net, ptr %20, i32 0, i32 0
  %21 = load ptr, ptr %dev.addr, align 8
  call void @vhost_dev_stop(ptr noundef %dev17, ptr noundef %21, i1 noundef zeroext false)
  %22 = load ptr, ptr %net.addr, align 8
  %nc18 = getelementptr inbounds %struct.vhost_net, ptr %22, i32 0, i32 3
  %23 = load ptr, ptr %nc18, align 8
  %info19 = getelementptr inbounds %struct.NetClientState, ptr %23, i32 0, i32 0
  %24 = load ptr, ptr %info19, align 8
  %stop = getelementptr inbounds %struct.NetClientInfo, ptr %24, i32 0, i32 8
  %25 = load ptr, ptr %stop, align 8
  %tobool20 = icmp ne ptr %25, null
  br i1 %tobool20, label %if.then21, label %if.end26

if.then21:                                        ; preds = %if.end16
  %26 = load ptr, ptr %net.addr, align 8
  %nc22 = getelementptr inbounds %struct.vhost_net, ptr %26, i32 0, i32 3
  %27 = load ptr, ptr %nc22, align 8
  %info23 = getelementptr inbounds %struct.NetClientState, ptr %27, i32 0, i32 0
  %28 = load ptr, ptr %info23, align 8
  %stop24 = getelementptr inbounds %struct.NetClientInfo, ptr %28, i32 0, i32 8
  %29 = load ptr, ptr %stop24, align 8
  %30 = load ptr, ptr %net.addr, align 8
  %nc25 = getelementptr inbounds %struct.vhost_net, ptr %30, i32 0, i32 3
  %31 = load ptr, ptr %nc25, align 8
  call void %29(ptr noundef %31)
  br label %if.end26

if.end26:                                         ; preds = %if.then21, %if.end16
  %32 = load ptr, ptr %net.addr, align 8
  %dev27 = getelementptr inbounds %struct.vhost_net, ptr %32, i32 0, i32 0
  %33 = load ptr, ptr %dev.addr, align 8
  call void @vhost_dev_disable_notifiers(ptr noundef %dev27, ptr noundef %33)
  ret void
}