; Function Attrs: nounwind sspstrong uwtable
define internal fastcc void @vhost_net_stop_one(ptr noundef %net, ptr noundef %dev) unnamed_addr #0 {
entry:
  %file = alloca %struct.vhost_vring_file, align 8
  store i64 -4294967296, ptr %file, align 8
  %nc = getelementptr inbounds nuw i8, ptr %net, i64 904
  %0 = load ptr, ptr %nc, align 8
  %1 = load ptr, ptr %0, align 8
  %2 = load i32, ptr %1, align 8
  %cmp = icmp eq i32 %2, 3
  br i1 %cmp, label %for.cond.preheader, label %if.end8

for.cond.preheader:                               ; preds = %entry
  %nvqs = getelementptr inbounds nuw i8, ptr %net, i64 440
  store i32 0, ptr %file, align 8
  %3 = load i32, ptr %nvqs, align 8
  %cmp313.not = icmp eq i32 %3, 0
  br i1 %cmp313.not, label %if.end8, label %for.body

for.body:                                         ; preds = %for.cond.preheader, %for.inc
  %call = call i32 @vhost_net_set_backend(ptr noundef nonnull %net, ptr noundef nonnull %file) #11
  %cmp5 = icmp sgt i32 %call, -1
  br i1 %cmp5, label %for.inc, label %if.else

if.else:                                          ; preds = %for.body
  call void @__assert_fail(ptr noundef nonnull @.str.5, ptr noundef nonnull @.str.6, i32 noundef 338, ptr noundef nonnull @__PRETTY_FUNCTION__.vhost_net_stop_one) #14
  unreachable

for.inc:                                          ; preds = %for.body
  %4 = load i32, ptr %file, align 8
  %inc = add i32 %4, 1
  store i32 %inc, ptr %file, align 8
  %5 = load i32, ptr %nvqs, align 8
  %cmp3 = icmp ult i32 %inc, %5
  br i1 %cmp3, label %for.body, label %if.end8.loopexit, !llvm.loop !11

if.end8.loopexit:                                 ; preds = %for.inc
  %.pre = load ptr, ptr %nc, align 8
  %.pre14 = load ptr, ptr %.pre, align 8
  br label %if.end8

if.end8:                                          ; preds = %if.end8.loopexit, %for.cond.preheader, %entry
  %6 = phi ptr [ %.pre14, %if.end8.loopexit ], [ %1, %for.cond.preheader ], [ %1, %entry ]
  %7 = phi ptr [ %.pre, %if.end8.loopexit ], [ %0, %for.cond.preheader ], [ %0, %entry ]
  %poll = getelementptr inbounds nuw i8, ptr %6, i64 96
  %8 = load ptr, ptr %poll, align 8
  %tobool.not = icmp eq ptr %8, null
  br i1 %tobool.not, label %if.end16, label %if.then11

if.then11:                                        ; preds = %if.end8
  call void %8(ptr noundef nonnull %7, i1 noundef zeroext true) #11
  br label %if.end16

if.end16:                                         ; preds = %if.then11, %if.end8
  call void @vhost_dev_stop(ptr noundef nonnull %net, ptr noundef %dev, i1 noundef zeroext false) #11
  %9 = load ptr, ptr %nc, align 8
  %10 = load ptr, ptr %9, align 8
  %stop = getelementptr inbounds nuw i8, ptr %10, i64 64
  %11 = load ptr, ptr %stop, align 8
  %tobool20.not = icmp eq ptr %11, null
  br i1 %tobool20.not, label %if.end26, label %if.then21

if.then21:                                        ; preds = %if.end16
  call void %11(ptr noundef nonnull %9) #11
  br label %if.end26

if.end26:                                         ; preds = %if.then21, %if.end16
  call void @vhost_dev_disable_notifiers(ptr noundef nonnull %net, ptr noundef %dev) #11
  ret void
}